; Function Attrs: nounwind uwtable
define internal void @intorel_shutdown(ptr noundef captures(none) %0) #0 {
  %2 = getelementptr inbounds nuw i8, ptr %0, i64 40
  %3 = load ptr, ptr %2, align 8
  %4 = getelementptr inbounds nuw i8, ptr %3, i64 64
  %5 = load i8, ptr %4, align 8, !range !4, !noundef !5
  %6 = trunc nuw i8 %5 to i1
  br i1 %6, label %table_finish_bulk_insert.exit, label %7

7:                                                ; preds = %1
  %8 = getelementptr inbounds nuw i8, ptr %0, i64 80
  %9 = load ptr, ptr %8, align 8
  tail call void @FreeBulkInsertState(ptr noundef %9) #8
  %10 = getelementptr inbounds nuw i8, ptr %0, i64 48
  %11 = load ptr, ptr %10, align 8
  %12 = getelementptr inbounds nuw i8, ptr %0, i64 72
  %13 = load i32, ptr %12, align 8
  %14 = getelementptr inbounds nuw i8, ptr %11, i64 320
  %15 = load ptr, ptr %14, align 8
  %.not.i = icmp eq ptr %15, null
  br i1 %.not.i, label %table_finish_bulk_insert.exit, label %16

16:                                               ; preds = %7
  %17 = getelementptr inbounds nuw i8, ptr %15, i64 216
  %18 = load ptr, ptr %17, align 8
  %.not5.i = icmp eq ptr %18, null
  br i1 %.not5.i, label %table_finish_bulk_insert.exit, label %19

19:                                               ; preds = %16
  tail call void %18(ptr noundef nonnull %11, i32 noundef %13) #8
  br label %table_finish_bulk_insert.exit

table_finish_bulk_insert.exit:                    ; preds = %19, %16, %7, %1
  %20 = getelementptr inbounds nuw i8, ptr %0, i64 48
  %21 = load ptr, ptr %20, align 8
  tail call void @table_close(ptr noundef %21, i32 noundef 0) #8
  store ptr null, ptr %20, align 8
  ret void
}